ccopy_reg
_reconstructor
p1
(cBinHuffmanTree
BinHuffmanTree
p2
c__builtin__
object
p3
NtRp4
(dp5
S'_HuffmanTree__root'
p6
g1
(cHuffmanTreeNode
HuffmanTreeNode
p7
g3
NtRp8
(dp9
S'_HuffmanTreeNode__rightChild'
p10
g1
(g7
g3
NtRp11
(dp12
g10
g1
(g7
g3
NtRp13
(dp14
g10
g1
(g7
g3
NtRp15
(dp16
g10
NsS'_HuffmanTreeNode__leftChild'
p17
NsS'_HuffmanTreeNode__symbols'
p18
c__builtin__
set
p19
((lp20
S' '
atRp21
sS'_HuffmanTreeNode__weight'
p22
I1409
sbsg17
g1
(g7
g3
NtRp23
(dp24
g10
g1
(g7
g3
NtRp25
(dp26
g10
g1
(g7
g3
NtRp27
(dp28
g10
Nsg17
Nsg18
g19
((lp29
S'i'
atRp30
sg22
I369
sbsg17
g1
(g7
g3
NtRp31
(dp32
g10
g1
(g7
g3
NtRp33
(dp34
g10
g1
(g7
g3
NtRp35
(dp36
g10
g1
(g7
g3
NtRp37
(dp38
g10
Nsg17
Nsg18
g19
((lp39
S'\xe2'
atRp40
sg22
I44
sbsg17
g1
(g7
g3
NtRp41
(dp42
g10
Nsg17
Nsg18
g19
((lp43
S'\x80'
atRp44
sg22
I44
sbsg18
g19
((lp45
S'\x80'
aS'\xe2'
atRp46
sg22
I88
sbsg17
g1
(g7
g3
NtRp47
(dp48
g10
g1
(g7
g3
NtRp49
(dp50
g10
g1
(g7
g3
NtRp51
(dp52
g10
g1
(g7
g3
NtRp53
(dp54
g10
Nsg17
Nsg18
g19
((lp55
S'?'
atRp56
sg22
I11
sbsg17
g1
(g7
g3
NtRp57
(dp58
g10
g1
(g7
g3
NtRp59
(dp60
g10
Nsg17
Nsg18
g19
((lp61
S'q'
atRp62
sg22
I6
sbsg17
g1
(g7
g3
NtRp63
(dp64
g10
Nsg17
Nsg18
g19
((lp65
S'j'
atRp66
sg22
I5
sbsg18
g19
((lp67
S'q'
aS'j'
atRp68
sg22
I11
sbsg18
g19
((lp69
S'q'
aS'j'
aS'?'
atRp70
sg22
I22
sbsg17
g1
(g7
g3
NtRp71
(dp72
g10
g1
(g7
g3
NtRp73
(dp74
g10
Nsg17
Nsg18
g19
((lp75
S'S'
atRp76
sg22
I10
sbsg17
g1
(g7
g3
NtRp77
(dp78
g10
Nsg17
Nsg18
g19
((lp79
S'C'
atRp80
sg22
I10
sbsg18
g19
((lp81
S'S'
aS'C'
atRp82
sg22
I20
sbsg18
g19
((lp83
S'q'
aS'S'
aS'j'
aS'C'
aS'?'
atRp84
sg22
I42
sbsg17
g1
(g7
g3
NtRp85
(dp86
g10
Nsg17
Nsg18
g19
((lp87
S'I'
atRp88
sg22
I41
sbsg18
g19
((lp89
S'q'
aS'C'
aS'I'
aS'j'
aS'S'
aS'?'
atRp90
sg22
I83
sbsg18
g19
((lp91
S'\x80'
aS'C'
aS'\xe2'
aS'I'
aS'j'
aS'q'
aS'S'
aS'?'
atRp92
sg22
I171
sbsg17
g1
(g7
g3
NtRp93
(dp94
g10
Nsg17
Nsg18
g19
((lp95
S'u'
atRp96
sg22
I169
sbsg18
g19
((lp97
S'\x80'
aS'C'
aS'\xe2'
aS'I'
aS'j'
aS'q'
aS'S'
aS'u'
aS'?'
atRp98
sg22
I340
sbsg18
g19
((lp99
S'\x80'
aS'C'
aS'\xe2'
aS'I'
aS'j'
aS'q'
aS'i'
aS'S'
aS'u'
aS'?'
atRp100
sg22
I709
sbsg17
g1
(g7
g3
NtRp101
(dp102
g10
Nsg17
Nsg18
g19
((lp103
S't'
atRp104
sg22
I604
sbsg18
g19
((lp105
S'\x80'
aS'C'
aS'\xe2'
aS'I'
aS'j'
aS'q'
aS'i'
aS'S'
aS'u'
aS't'
aS'?'
atRp106
sg22
I1313
sbsg18
g19
((lp107
S'\x80'
aS'C'
aS'\xe2'
aS' '
aS'I'
aS'j'
aS'q'
aS'i'
aS'S'
aS'u'
aS't'
aS'?'
atRp108
sg22
I2722
sbsg17
g1
(g7
g3
NtRp109
(dp110
g10
g1
(g7
g3
NtRp111
(dp112
g10
g1
(g7
g3
NtRp113
(dp114
g10
g1
(g7
g3
NtRp115
(dp116
g10
g1
(g7
g3
NtRp117
(dp118
g10
g1
(g7
g3
NtRp119
(dp120
g10
Nsg17
Nsg18
g19
((lp121
S'b'
atRp122
sg22
I81
sbsg17
g1
(g7
g3
NtRp123
(dp124
g10
g1
(g7
g3
NtRp125
(dp126
g10
g1
(g7
g3
NtRp127
(dp128
g10
Nsg17
Nsg18
g19
((lp129
S'\x94'
atRp130
sg22
I18
sbsg17
g1
(g7
g3
NtRp131
(dp132
g10
g1
(g7
g3
NtRp133
(dp134
g10
Nsg17
Nsg18
g19
((lp135
S'z'
atRp136
sg22
I9
sbsg17
g1
(g7
g3
NtRp137
(dp138
g10
g1
(g7
g3
NtRp139
(dp140
g10
g1
(g7
g3
NtRp141
(dp142
g10
Nsg17
Nsg18
g19
((lp143
S'Y'
atRp144
sg22
I2
sbsg17
g1
(g7
g3
NtRp145
(dp146
g10
Nsg17
Nsg18
g19
((lp147
S'R'
atRp148
sg22
I3
sbsg18
g19
((lp149
S'Y'
aS'R'
atRp150
sg22
I5
sbsg17
g1
(g7
g3
NtRp151
(dp152
g10
Nsg17
Nsg18
g19
((lp153
S'F'
atRp154
sg22
I4
sbsg18
g19
((lp155
S'Y'
aS'R'
aS'F'
atRp156
sg22
I9
sbsg18
g19
((lp157
S'Y'
aS'R'
aS'z'
aS'F'
atRp158
sg22
I18
sbsg18
g19
((lp159
S'Y'
aS'F'
aS'R'
aS'z'
aS'\x94'
atRp160
sg22
I36
sbsg17
g1
(g7
g3
NtRp161
(dp162
g10
g1
(g7
g3
NtRp163
(dp164
g10
g1
(g7
g3
NtRp165
(dp166
g10
Nsg17
Nsg18
g19
((lp167
S'\x9d'
atRp168
sg22
I9
sbsg17
g1
(g7
g3
NtRp169
(dp170
g10
Nsg17
Nsg18
g19
((lp171
S'\x9c'
atRp172
sg22
I9
sbsg18
g19
((lp173
S'\x9d'
aS'\x9c'
atRp174
sg22
I18
sbsg17
g1
(g7
g3
NtRp175
(dp176
g10
g1
(g7
g3
NtRp177
(dp178
g10
Nsg17
Nsg18
g19
((lp179
S'W'
atRp180
sg22
I8
sbsg17
g1
(g7
g3
NtRp181
(dp182
g10
Nsg17
Nsg18
g19
((lp183
S'A'
atRp184
sg22
I8
sbsg18
g19
((lp185
S'A'
aS'W'
atRp186
sg22
I16
sbsg18
g19
((lp187
S'A'
aS'\x9d'
aS'\x9c'
aS'W'
atRp188
sg22
I34
sbsg18
g19
((lp189
S'A'
aS'F'
aS'R'
aS'\x94'
aS'W'
aS'Y'
aS'z'
aS'\x9d'
aS'\x9c'
atRp190
sg22
I70
sbsg18
g19
((lp191
S'A'
aS'b'
aS'F'
aS'R'
aS'\x94'
aS'W'
aS'Y'
aS'z'
aS'\x9d'
aS'\x9c'
atRp192
sg22
I151
sbsg17
g1
(g7
g3
NtRp193
(dp194
g10
Nsg17
Nsg18
g19
((lp195
S'g'
atRp196
sg22
I146
sbsg18
g19
((lp197
S'A'
aS'b'
aS'g'
aS'F'
aS'R'
aS'\x94'
aS'W'
aS'Y'
aS'z'
aS'\x9d'
aS'\x9c'
atRp198
sg22
I297
sbsg17
g1
(g7
g3
NtRp199
(dp200
g10
g1
(g7
g3
NtRp201
(dp202
g10
Nsg17
Nsg18
g19
((lp203
S'f'
atRp204
sg22
I145
sbsg17
g1
(g7
g3
NtRp205
(dp206
g10
Nsg17
Nsg18
g19
((lp207
S'c'
atRp208
sg22
I142
sbsg18
g19
((lp209
S'c'
aS'f'
atRp210
sg22
I287
sbsg18
g19
((lp211
S'A'
aS'c'
aS'b'
aS'g'
aS'F'
aS'f'
aS'R'
aS'\x94'
aS'W'
aS'Y'
aS'z'
aS'\x9d'
aS'\x9c'
atRp212
sg22
I584
sbsg17
g1
(g7
g3
NtRp213
(dp214
g10
g1
(g7
g3
NtRp215
(dp216
g10
Nsg17
Nsg18
g19
((lp217
S'd'
atRp218
sg22
I270
sbsg17
g1
(g7
g3
NtRp219
(dp220
g10
g1
(g7
g3
NtRp221
(dp222
g10
Nsg17
Nsg18
g19
((lp223
S'w'
atRp224
sg22
I134
sbsg17
g1
(g7
g3
NtRp225
(dp226
g10
Nsg17
Nsg18
g19
((lp227
S'm'
atRp228
sg22
I135
sbsg18
g19
((lp229
S'm'
aS'w'
atRp230
sg22
I269
sbsg18
g19
((lp231
S'm'
aS'd'
aS'w'
atRp232
sg22
I539
sbsg18
g19
((lp233
S'A'
aS'F'
aS'R'
aS'\x94'
aS'W'
aS'Y'
aS'\x9d'
aS'\x9c'
aS'c'
aS'b'
aS'd'
aS'g'
aS'f'
aS'm'
aS'w'
aS'z'
atRp234
sg22
I1123
sbsg17
g1
(g7
g3
NtRp235
(dp236
g10
g1
(g7
g3
NtRp237
(dp238
g10
Nsg17
Nsg18
g19
((lp239
S'o'
atRp240
sg22
I517
sbsg17
g1
(g7
g3
NtRp241
(dp242
g10
g1
(g7
g3
NtRp243
(dp244
g10
g1
(g7
g3
NtRp245
(dp246
g10
Nsg17
Nsg18
g19
((lp247
S'p'
atRp248
sg22
I126
sbsg17
g1
(g7
g3
NtRp249
(dp250
g10
Nsg17
Nsg18
g19
((lp251
S','
atRp252
sg22
I132
sbsg18
g19
((lp253
S'p'
aS','
atRp254
sg22
I258
sbsg17
g1
(g7
g3
NtRp255
(dp256
g10
g1
(g7
g3
NtRp257
(dp258
g10
g1
(g7
g3
NtRp259
(dp260
g10
Nsg17
Nsg18
g19
((lp261
S'k'
atRp262
sg22
I63
sbsg17
g1
(g7
g3
NtRp263
(dp264
g10
g1
(g7
g3
NtRp265
(dp266
g10
g1
(g7
g3
NtRp267
(dp268
g10
Nsg17
Nsg18
g19
((lp269
S'T'
atRp270
sg22
I15
sbsg17
g1
(g7
g3
NtRp271
(dp272
g10
g1
(g7
g3
NtRp273
(dp274
g10
g1
(g7
g3
NtRp275
(dp276
g10
g1
(g7
g3
NtRp277
(dp278
g10
g1
(g7
g3
NtRp279
(dp280
g10
Nsg17
Nsg18
g19
((lp281
S'2'
atRp282
sg22
I1
sbsg17
g1
(g7
g3
NtRp283
(dp284
g10
Nsg17
Nsg18
g19
((lp285
S'('
atRp286
sg22
I1
sbsg18
g19
((lp287
S'('
aS'2'
atRp288
sg22
I2
sbsg17
g1
(g7
g3
NtRp289
(dp290
g10
g1
(g7
g3
NtRp291
(dp292
g10
Nsg17
Nsg18
g19
((lp293
S'\x98'
atRp294
sg22
I1
sbsg17
g1
(g7
g3
NtRp295
(dp296
g10
Nsg17
Nsg18
g19
((lp297
S')'
atRp298
sg22
I1
sbsg18
g19
((lp299
S')'
aS'\x98'
atRp300
sg22
I2
sbsg18
g19
((lp301
S')'
aS'\x98'
aS'2'
aS'('
atRp302
sg22
I4
sbsg17
g1
(g7
g3
NtRp303
(dp304
g10
g1
(g7
g3
NtRp305
(dp306
g10
g1
(g7
g3
NtRp307
(dp308
g10
Nsg17
Nsg18
g19
((lp309
S'Q'
atRp310
sg22
I1
sbsg17
g1
(g7
g3
NtRp311
(dp312
g10
Nsg17
Nsg18
g19
((lp313
S'O'
atRp314
sg22
I1
sbsg18
g19
((lp315
S'Q'
aS'O'
atRp316
sg22
I2
sbsg17
g1
(g7
g3
NtRp317
(dp318
g10
g1
(g7
g3
NtRp319
(dp320
g10
Nsg17
Nsg18
g19
((lp321
S'G'
atRp322
sg22
I1
sbsg17
g1
(g7
g3
NtRp323
(dp324
g10
Nsg17
Nsg18
g19
((lp325
S':'
atRp326
sg22
I1
sbsg18
g19
((lp327
S':'
aS'G'
atRp328
sg22
I2
sbsg18
g19
((lp329
S'Q'
aS':'
aS'G'
aS'O'
atRp330
sg22
I4
sbsg18
g19
((lp331
S'G'
aS')'
aS'('
aS'O'
aS'Q'
aS'2'
aS'\x98'
aS':'
atRp332
sg22
I8
sbsg17
g1
(g7
g3
NtRp333
(dp334
g10
Nsg17
Nsg18
g19
((lp335
S'\x99'
atRp336
sg22
I7
sbsg18
g19
((lp337
S'G'
aS')'
aS'('
aS'O'
aS'Q'
aS'2'
aS'\x99'
aS'\x98'
aS':'
atRp338
sg22
I15
sbsg18
g19
((lp339
S'G'
aS')'
aS'('
aS'O'
aS'Q'
aS'2'
aS'T'
aS'\x99'
aS'\x98'
aS':'
atRp340
sg22
I30
sbsg17
g1
(g7
g3
NtRp341
(dp342
g10
g1
(g7
g3
NtRp343
(dp344
g10
g1
(g7
g3
NtRp345
(dp346
g10
Nsg17
Nsg18
g19
((lp347
S'P'
atRp348
sg22
I7
sbsg17
g1
(g7
g3
NtRp349
(dp350
g10
Nsg17
Nsg18
g19
((lp351
S'L'
atRp352
sg22
I7
sbsg18
g19
((lp353
S'P'
aS'L'
atRp354
sg22
I14
sbsg17
g1
(g7
g3
NtRp355
(dp356
g10
g1
(g7
g3
NtRp357
(dp358
g10
Nsg17
Nsg18
g19
((lp359
S'H'
atRp360
sg22
I7
sbsg17
g1
(g7
g3
NtRp361
(dp362
g10
Nsg17
Nsg18
g19
((lp363
S'!'
atRp364
sg22
I7
sbsg18
g19
((lp365
S'!'
aS'H'
atRp366
sg22
I14
sbsg18
g19
((lp367
S'!'
aS'H'
aS'L'
aS'P'
atRp368
sg22
I28
sbsg18
g19
((lp369
S'!'
aS'G'
aS')'
aS'H'
aS'L'
aS'O'
aS'Q'
aS'P'
aS'2'
aS'T'
aS'('
aS'\x99'
aS'\x98'
aS':'
atRp370
sg22
I58
sbsg18
g19
((lp371
S'!'
aS'G'
aS')'
aS'H'
aS'k'
aS'L'
aS'O'
aS'Q'
aS'P'
aS'2'
aS'T'
aS'('
aS'\x99'
aS'\x98'
aS':'
atRp372
sg22
I121
sbsg17
g1
(g7
g3
NtRp373
(dp374
g10
Nsg17
Nsg18
g19
((lp375
S'y'
atRp376
sg22
I104
sbsg18
g19
((lp377
S'G'
aS'H'
aS'L'
aS'O'
aS'Q'
aS'P'
aS'T'
aS'\x99'
aS'\x98'
aS'!'
aS')'
aS'('
aS'k'
aS'2'
aS'y'
aS':'
atRp378
sg22
I225
sbsg18
g19
((lp379
S'G'
aS'H'
aS'L'
aS'O'
aS'Q'
aS'P'
aS'T'
aS'\x99'
aS'\x98'
aS'!'
aS')'
aS'('
aS'k'
aS','
aS'p'
aS'2'
aS'y'
aS':'
atRp380
sg22
I483
sbsg18
g19
((lp381
S'G'
aS'H'
aS'L'
aS'O'
aS'Q'
aS'P'
aS'T'
aS'\x99'
aS'\x98'
aS'!'
aS')'
aS'('
aS'k'
aS','
aS'o'
aS'p'
aS'2'
aS'y'
aS':'
atRp382
sg22
I1000
sbsg18
g19
((lp383
S'\x94'
aS'\x99'
aS'\x98'
aS'\x9d'
aS'\x9c'
aS'!'
aS')'
aS'('
aS','
aS'2'
aS':'
aS'A'
aS'G'
aS'F'
aS'H'
aS'L'
aS'O'
aS'Q'
aS'P'
aS'R'
aS'T'
aS'W'
aS'Y'
aS'c'
aS'b'
aS'd'
aS'g'
aS'f'
aS'k'
aS'm'
aS'o'
aS'p'
aS'w'
aS'y'
aS'z'
atRp384
sg22
I2123
sbsg18
g19
((lp385
S'\x80'
aS'\x94'
aS'\x99'
aS'\x98'
aS'\x9d'
aS'\x9c'
aS'!'
aS' '
aS')'
aS'('
aS','
aS'2'
aS':'
aS'?'
aS'A'
aS'C'
aS'G'
aS'F'
aS'I'
aS'H'
aS'L'
aS'O'
aS'Q'
aS'P'
aS'S'
aS'R'
aS'T'
aS'W'
aS'Y'
aS'b'
aS'c'
aS'\xe2'
aS'd'
aS'g'
aS'f'
aS'i'
aS'k'
aS'j'
aS'm'
aS'o'
aS'q'
aS'p'
aS'u'
aS't'
aS'w'
aS'y'
aS'z'
atRp386
sg22
I4845
sbsg17
g1
(g7
g3
NtRp387
(dp388
g10
g1
(g7
g3
NtRp389
(dp390
g10
g1
(g7
g3
NtRp391
(dp392
g10
g1
(g7
g3
NtRp393
(dp394
g10
Nsg17
Nsg18
g19
((lp395
S'a'
atRp396
sg22
I471
sbsg17
g1
(g7
g3
NtRp397
(dp398
g10
g1
(g7
g3
NtRp399
(dp400
g10
Nsg17
Nsg18
g19
((lp401
S'l'
atRp402
sg22
I222
sbsg17
g1
(g7
g3
NtRp403
(dp404
g10
g1
(g7
g3
NtRp405
(dp406
g10
g1
(g7
g3
NtRp407
(dp408
g10
g1
(g7
g3
NtRp409
(dp410
g10
g1
(g7
g3
NtRp411
(dp412
g10
Nsg17
Nsg18
g19
((lp413
S'B'
atRp414
sg22
I14
sbsg17
g1
(g7
g3
NtRp415
(dp416
g10
Nsg17
Nsg18
g19
((lp417
S'-'
atRp418
sg22
I14
sbsg18
g19
((lp419
S'B'
aS'-'
atRp420
sg22
I28
sbsg17
g1
(g7
g3
NtRp421
(dp422
g10
g1
(g7
g3
NtRp423
(dp424
g10
Nsg17
Nsg18
g19
((lp425
S'N'
atRp426
sg22
I13
sbsg17
g1
(g7
g3
NtRp427
(dp428
g10
g1
(g7
g3
NtRp429
(dp430
g10
Nsg17
Nsg18
g19
((lp431
S'x'
atRp432
sg22
I7
sbsg17
g1
(g7
g3
NtRp433
(dp434
g10
Nsg17
Nsg18
g19
((lp435
S'E'
atRp436
sg22
I6
sbsg18
g19
((lp437
S'x'
aS'E'
atRp438
sg22
I13
sbsg18
g19
((lp439
S'x'
aS'E'
aS'N'
atRp440
sg22
I26
sbsg18
g19
((lp441
S'x'
aS'B'
aS'-'
aS'E'
aS'N'
atRp442
sg22
I54
sbsg17
g1
(g7
g3
NtRp443
(dp444
g10
g1
(g7
g3
NtRp445
(dp446
g10
Nsg17
Nsg18
g19
((lp447
S'\n'
atRp448
sg22
I25
sbsg17
g1
(g7
g3
NtRp449
(dp450
g10
g1
(g7
g3
NtRp451
(dp452
g10
Nsg17
Nsg18
g19
((lp453
S';'
atRp454
sg22
I12
sbsg17
g1
(g7
g3
NtRp455
(dp456
g10
g1
(g7
g3
NtRp457
(dp458
g10
Nsg17
Nsg18
g19
((lp459
S'M'
atRp460
sg22
I6
sbsg17
g1
(g7
g3
NtRp461
(dp462
g10
Nsg17
Nsg18
g19
((lp463
S'D'
atRp464
sg22
I6
sbsg18
g19
((lp465
S'M'
aS'D'
atRp466
sg22
I12
sbsg18
g19
((lp467
S';'
aS'M'
aS'D'
atRp468
sg22
I24
sbsg18
g19
((lp469
S';'
aS'\n'
aS'M'
aS'D'
atRp470
sg22
I49
sbsg18
g19
((lp471
S'B'
aS'E'
aS'D'
aS'M'
aS'\n'
aS'-'
aS'N'
aS'x'
aS';'
atRp472
sg22
I103
sbsg17
g1
(g7
g3
NtRp473
(dp474
g10
g1
(g7
g3
NtRp475
(dp476
g10
Nsg17
Nsg18
g19
((lp477
S'v'
atRp478
sg22
I47
sbsg17
g1
(g7
g3
NtRp479
(dp480
g10
Nsg17
Nsg18
g19
((lp481
S'.'
atRp482
sg22
I47
sbsg18
g19
((lp483
S'v'
aS'.'
atRp484
sg22
I94
sbsg18
g19
((lp485
S'B'
aS'E'
aS'D'
aS'M'
aS'\n'
aS'-'
aS'.'
aS'v'
aS'x'
aS';'
aS'N'
atRp486
sg22
I197
sbsg18
g19
((lp487
S'B'
aS'E'
aS'D'
aS'M'
aS'\n'
aS'-'
aS'l'
aS'.'
aS'v'
aS'x'
aS';'
aS'N'
atRp488
sg22
I419
sbsg18
g19
((lp489
S'a'
aS'B'
aS'E'
aS'D'
aS'M'
aS'\n'
aS'-'
aS'l'
aS'.'
aS'v'
aS'x'
aS';'
aS'N'
atRp490
sg22
I890
sbsg17
g1
(g7
g3
NtRp491
(dp492
g10
g1
(g7
g3
NtRp493
(dp494
g10
Nsg17
Nsg18
g19
((lp495
S'n'
atRp496
sg22
I403
sbsg17
g1
(g7
g3
NtRp497
(dp498
g10
Nsg17
Nsg18
g19
((lp499
S'h'
atRp500
sg22
I389
sbsg18
g19
((lp501
S'h'
aS'n'
atRp502
sg22
I792
sbsg18
g19
((lp503
S'a'
aS'B'
aS'E'
aS'D'
aS'h'
aS'\n'
aS'M'
aS'l'
aS'n'
aS'-'
aS'.'
aS'v'
aS'x'
aS';'
aS'N'
atRp504
sg22
I1682
sbsg17
g1
(g7
g3
NtRp505
(dp506
g10
g1
(g7
g3
NtRp507
(dp508
g10
g1
(g7
g3
NtRp509
(dp510
g10
Nsg17
Nsg18
g19
((lp511
S's'
atRp512
sg22
I382
sbsg17
g1
(g7
g3
NtRp513
(dp514
g10
Nsg17
Nsg18
g19
((lp515
S'r'
atRp516
sg22
I378
sbsg18
g19
((lp517
S's'
aS'r'
atRp518
sg22
I760
sbsg17
g1
(g7
g3
NtRp519
(dp520
g10
Nsg17
Nsg18
g19
((lp521
S'e'
atRp522
sg22
I743
sbsg18
g19
((lp523
S's'
aS'r'
aS'e'
atRp524
sg22
I1503
sbsg18
g19
((lp525
S'B'
aS'E'
aS'D'
aS'\n'
aS'M'
aS'N'
aS'.'
aS'a'
aS'e'
aS'h'
aS'-'
aS'l'
aS'n'
aS's'
aS'r'
aS'v'
aS'x'
aS';'
atRp526
sg22
I3185
sbsg18
g19
((lp527
S'\n'
aS'\x99'
aS'\x9d'
aS' '
aS'('
aS','
aS'.'
aS'2'
aS':'
aS'B'
aS'D'
aS'F'
aS'H'
aS'L'
aS'N'
aS'P'
aS'R'
aS'T'
aS'b'
aS'd'
aS'f'
aS'h'
aS'j'
aS'l'
aS'n'
aS'p'
aS'r'
aS't'
aS'v'
aS'x'
aS'z'
aS'\x80'
aS'\x94'
aS'\x98'
aS'\x9c'
aS'!'
aS')'
aS'-'
aS';'
aS'?'
aS'A'
aS'C'
aS'E'
aS'G'
aS'I'
aS'M'
aS'O'
aS'Q'
aS'S'
aS'W'
aS'Y'
aS'a'
aS'c'
aS'\xe2'
aS'e'
aS'g'
aS'i'
aS'k'
aS'm'
aS'o'
aS'q'
aS's'
aS'u'
aS'w'
aS'y'
atRp528
sg22
I8030
sbsb.