ccopy_reg
_reconstructor
p1
(cBinHuffmanTree
BinHuffmanTree
p2
c__builtin__
object
p3
NtRp4
(dp5
S'_HuffmanTree__root'
p6
g1
(cHuffmanTreeNode
HuffmanTreeNode
p7
g3
NtRp8
(dp9
S'_HuffmanTreeNode__rightChild'
p10
g1
(g7
g3
NtRp11
(dp12
g10
g1
(g7
g3
NtRp13
(dp14
g10
g1
(g7
g3
NtRp15
(dp16
g10
NsS'_HuffmanTreeNode__leftChild'
p17
NsS'_HuffmanTreeNode__symbols'
p18
c__builtin__
set
p19
((lp20
S' '
atRp21
sS'_HuffmanTreeNode__weight'
p22
I2178
sbsg17
g1
(g7
g3
NtRp23
(dp24
g10
g1
(g7
g3
NtRp25
(dp26
g10
g1
(g7
g3
NtRp27
(dp28
g10
Nsg17
Nsg18
g19
((lp29
S'r'
atRp30
sg22
I532
sbsg17
g1
(g7
g3
NtRp31
(dp32
g10
g1
(g7
g3
NtRp33
(dp34
g10
Nsg17
Nsg18
g19
((lp35
S'u'
atRp36
sg22
I263
sbsg17
g1
(g7
g3
NtRp37
(dp38
g10
Nsg17
Nsg18
g19
((lp39
S'm'
atRp40
sg22
I263
sbsg18
g19
((lp41
S'u'
aS'm'
atRp42
sg22
I526
sbsg18
g19
((lp43
S'u'
aS'r'
aS'm'
atRp44
sg22
I1058
sbsg17
g1
(g7
g3
NtRp45
(dp46
g10
Nsg17
Nsg18
g19
((lp47
S't'
atRp48
sg22
I865
sbsg18
g19
((lp49
S'u'
aS'r'
aS'm'
aS't'
atRp50
sg22
I1923
sbsg18
g19
((lp51
S'u'
aS'r'
aS'm'
aS't'
aS' '
atRp52
sg22
I4101
sbsg17
g1
(g7
g3
NtRp53
(dp54
g10
g1
(g7
g3
NtRp55
(dp56
g10
g1
(g7
g3
NtRp57
(dp58
g10
g1
(g7
g3
NtRp59
(dp60
g10
g1
(g7
g3
NtRp61
(dp62
g10
g1
(g7
g3
NtRp63
(dp64
g10
g1
(g7
g3
NtRp65
(dp66
g10
g1
(g7
g3
NtRp67
(dp68
g10
Nsg17
Nsg18
g19
((lp69
S'\n'
atRp70
sg22
I31
sbsg17
g1
(g7
g3
NtRp71
(dp72
g10
g1
(g7
g3
NtRp73
(dp74
g10
g1
(g7
g3
NtRp75
(dp76
g10
Nsg17
Nsg18
g19
((lp77
S'G'
atRp78
sg22
I8
sbsg17
g1
(g7
g3
NtRp79
(dp80
g10
Nsg17
Nsg18
g19
((lp81
S'F'
atRp82
sg22
I8
sbsg18
g19
((lp83
S'G'
aS'F'
atRp84
sg22
I16
sbsg17
g1
(g7
g3
NtRp85
(dp86
g10
Nsg17
Nsg18
g19
((lp87
S'S'
atRp88
sg22
I15
sbsg18
g19
((lp89
S'S'
aS'G'
aS'F'
atRp90
sg22
I31
sbsg18
g19
((lp91
S'S'
aS'\n'
aS'G'
aS'F'
atRp92
sg22
I62
sbsg17
g1
(g7
g3
NtRp93
(dp94
g10
Nsg17
Nsg18
g19
((lp95
S'I'
atRp96
sg22
I59
sbsg18
g19
((lp97
S'I'
aS'S'
aS'\n'
aS'G'
aS'F'
atRp98
sg22
I121
sbsg17
g1
(g7
g3
NtRp99
(dp100
g10
g1
(g7
g3
NtRp101
(dp102
g10
g1
(g7
g3
NtRp103
(dp104
g10
g1
(g7
g3
NtRp105
(dp106
g10
g1
(g7
g3
NtRp107
(dp108
g10
Nsg17
Nsg18
g19
((lp109
S'z'
atRp110
sg22
I7
sbsg17
g1
(g7
g3
NtRp111
(dp112
g10
Nsg17
Nsg18
g19
((lp113
S'L'
atRp114
sg22
I7
sbsg18
g19
((lp115
S'z'
aS'L'
atRp116
sg22
I14
sbsg17
g1
(g7
g3
NtRp117
(dp118
g10
g1
(g7
g3
NtRp119
(dp120
g10
Nsg17
Nsg18
g19
((lp121
S'\x99'
atRp122
sg22
I7
sbsg17
g1
(g7
g3
NtRp123
(dp124
g10
Nsg17
Nsg18
g19
((lp125
S'E'
atRp126
sg22
I7
sbsg18
g19
((lp127
S'\x99'
aS'E'
atRp128
sg22
I14
sbsg18
g19
((lp129
S'\x99'
aS'z'
aS'E'
aS'L'
atRp130
sg22
I28
sbsg17
g1
(g7
g3
NtRp131
(dp132
g10
g1
(g7
g3
NtRp133
(dp134
g10
Nsg17
Nsg18
g19
((lp135
S'N'
atRp136
sg22
I14
sbsg17
g1
(g7
g3
NtRp137
(dp138
g10
Nsg17
Nsg18
g19
((lp139
S'B'
atRp140
sg22
I14
sbsg18
g19
((lp141
S'B'
aS'N'
atRp142
sg22
I28
sbsg18
g19
((lp143
S'B'
aS'E'
aS'\x99'
aS'z'
aS'L'
aS'N'
atRp144
sg22
I56
sbsg17
g1
(g7
g3
NtRp145
(dp146
g10
Nsg17
Nsg18
g19
((lp147
S'k'
atRp148
sg22
I55
sbsg18
g19
((lp149
S'B'
aS'E'
aS'\x99'
aS'k'
aS'z'
aS'L'
aS'N'
atRp150
sg22
I111
sbsg18
g19
((lp151
S'B'
aS'E'
aS'G'
aS'F'
aS'I'
aS'k'
aS'\n'
aS'L'
aS'N'
aS'S'
aS'\x99'
aS'z'
atRp152
sg22
I232
sbsg17
g1
(g7
g3
NtRp153
(dp154
g10
Nsg17
Nsg18
g19
((lp155
S'g'
atRp156
sg22
I210
sbsg18
g19
((lp157
S'B'
aS'E'
aS'G'
aS'g'
aS'F'
aS'I'
aS'k'
aS'\n'
aS'L'
aS'N'
aS'S'
aS'\x99'
aS'z'
atRp158
sg22
I442
sbsg17
g1
(g7
g3
NtRp159
(dp160
g10
Nsg17
Nsg18
g19
((lp161
S'l'
atRp162
sg22
I420
sbsg18
g19
((lp163
S'B'
aS'E'
aS'g'
aS'G'
aS'F'
aS'I'
aS'k'
aS'\n'
aS'l'
aS'L'
aS'S'
aS'\x99'
aS'N'
aS'z'
atRp164
sg22
I862
sbsg17
g1
(g7
g3
NtRp165
(dp166
g10
g1
(g7
g3
NtRp167
(dp168
g10
g1
(g7
g3
NtRp169
(dp170
g10
Nsg17
Nsg18
g19
((lp171
S'y'
atRp172
sg22
I206
sbsg17
g1
(g7
g3
NtRp173
(dp174
g10
Nsg17
Nsg18
g19
((lp175
S'c'
atRp176
sg22
I208
sbsg18
g19
((lp177
S'y'
aS'c'
atRp178
sg22
I414
sbsg17
g1
(g7
g3
NtRp179
(dp180
g10
g1
(g7
g3
NtRp181
(dp182
g10
Nsg17
Nsg18
g19
((lp183
S'f'
atRp184
sg22
I201
sbsg17
g1
(g7
g3
NtRp185
(dp186
g10
g1
(g7
g3
NtRp187
(dp188
g10
Nsg17
Nsg18
g19
((lp189
S'v'
atRp190
sg22
I102
sbsg17
g1
(g7
g3
NtRp191
(dp192
g10
g1
(g7
g3
NtRp193
(dp194
g10
g1
(g7
g3
NtRp195
(dp196
g10
Nsg17
Nsg18
g19
((lp197
S'\x94'
atRp198
sg22
I27
sbsg17
g1
(g7
g3
NtRp199
(dp200
g10
Nsg17
Nsg18
g19
((lp201
S';'
atRp202
sg22
I25
sbsg18
g19
((lp203
S';'
aS'\x94'
atRp204
sg22
I52
sbsg17
g1
(g7
g3
NtRp205
(dp206
g10
g1
(g7
g3
NtRp207
(dp208
g10
g1
(g7
g3
NtRp209
(dp210
g10
Nsg17
Nsg18
g19
((lp211
S'C'
atRp212
sg22
I13
sbsg17
g1
(g7
g3
NtRp213
(dp214
g10
g1
(g7
g3
NtRp215
(dp216
g10
Nsg17
Nsg18
g19
((lp217
S'O'
atRp218
sg22
I6
sbsg17
g1
(g7
g3
NtRp219
(dp220
g10
g1
(g7
g3
NtRp221
(dp222
g10
Nsg17
Nsg18
g19
((lp223
S'\x9c'
atRp224
sg22
I3
sbsg17
g1
(g7
g3
NtRp225
(dp226
g10
Nsg17
Nsg18
g19
((lp227
S'D'
atRp228
sg22
I3
sbsg18
g19
((lp229
S'D'
aS'\x9c'
atRp230
sg22
I6
sbsg18
g19
((lp231
S'D'
aS'O'
aS'\x9c'
atRp232
sg22
I12
sbsg18
g19
((lp233
S'C'
aS'D'
aS'O'
aS'\x9c'
atRp234
sg22
I25
sbsg17
g1
(g7
g3
NtRp235
(dp236
g10
Nsg17
Nsg18
g19
((lp237
S'T'
atRp238
sg22
I22
sbsg18
g19
((lp239
S'D'
aS'C'
aS'\x9c'
aS'O'
aS'T'
atRp240
sg22
I47
sbsg18
g19
((lp241
S'\x94'
aS'C'
aS'D'
aS';'
aS'\x9c'
aS'O'
aS'T'
atRp242
sg22
I99
sbsg18
g19
((lp243
S'C'
aS'D'
aS'O'
aS'\x94'
aS'v'
aS';'
aS'\x9c'
aS'T'
atRp244
sg22
I201
sbsg18
g19
((lp245
S'C'
aS'D'
aS'f'
aS'O'
aS'\x94'
aS'v'
aS';'
aS'\x9c'
aS'T'
atRp246
sg22
I402
sbsg18
g19
((lp247
S'C'
aS'D'
aS'f'
aS'c'
aS'O'
aS'\x94'
aS'v'
aS'y'
aS';'
aS'\x9c'
aS'T'
atRp248
sg22
I816
sbsg18
g19
((lp249
S'C'
aS'B'
aS'E'
aS'D'
aS'G'
aS'F'
aS'I'
aS'\n'
aS'L'
aS'O'
aS'N'
aS'S'
aS'\x94'
aS'\x99'
aS'\x9c'
aS'c'
aS'g'
aS'f'
aS'k'
aS'l'
aS'v'
aS'y'
aS';'
aS'z'
aS'T'
atRp250
sg22
I1678
sbsg17
g1
(g7
g3
NtRp251
(dp252
g10
g1
(g7
g3
NtRp253
(dp254
g10
Nsg17
Nsg18
g19
((lp255
S'o'
atRp256
sg22
I742
sbsg17
g1
(g7
g3
NtRp257
(dp258
g10
Nsg17
Nsg18
g19
((lp259
S'a'
atRp260
sg22
I777
sbsg18
g19
((lp261
S'a'
aS'o'
atRp262
sg22
I1519
sbsg18
g19
((lp263
S'C'
aS'B'
aS'E'
aS'D'
aS'G'
aS'F'
aS'I'
aS'\n'
aS'L'
aS'O'
aS'N'
aS'S'
aS'\x94'
aS'\x99'
aS'\x9c'
aS'a'
aS'c'
aS'g'
aS'f'
aS'k'
aS'l'
aS'o'
aS'v'
aS'y'
aS';'
aS'z'
aS'T'
atRp264
sg22
I3197
sbsg18
g19
((lp265
S'\n'
aS'\x94'
aS'\x99'
aS'\x9c'
aS' '
aS';'
aS'C'
aS'B'
aS'E'
aS'D'
aS'G'
aS'F'
aS'I'
aS'L'
aS'O'
aS'N'
aS'S'
aS'T'
aS'a'
aS'c'
aS'g'
aS'f'
aS'k'
aS'm'
aS'l'
aS'o'
aS'r'
aS'u'
aS't'
aS'v'
aS'y'
aS'z'
atRp266
sg22
I7298
sbsg17
g1
(g7
g3
NtRp267
(dp268
g10
g1
(g7
g3
NtRp269
(dp270
g10
g1
(g7
g3
NtRp271
(dp272
g10
g1
(g7
g3
NtRp273
(dp274
g10
g1
(g7
g3
NtRp275
(dp276
g10
g1
(g7
g3
NtRp277
(dp278
g10
Nsg17
Nsg18
g19
((lp279
S'w'
atRp280
sg22
I186
sbsg17
g1
(g7
g3
NtRp281
(dp282
g10
Nsg17
Nsg18
g19
((lp283
S'p'
atRp284
sg22
I182
sbsg18
g19
((lp285
S'p'
aS'w'
atRp286
sg22
I368
sbsg17
g1
(g7
g3
NtRp287
(dp288
g10
Nsg17
Nsg18
g19
((lp289
S'd'
atRp290
sg22
I341
sbsg18
g19
((lp291
S'p'
aS'd'
aS'w'
atRp292
sg22
I709
sbsg17
g1
(g7
g3
NtRp293
(dp294
g10
Nsg17
Nsg18
g19
((lp295
S's'
atRp296
sg22
I674
sbsg18
g19
((lp297
S'p'
aS's'
aS'd'
aS'w'
atRp298
sg22
I1383
sbsg17
g1
(g7
g3
NtRp299
(dp300
g10
g1
(g7
g3
NtRp301
(dp302
g10
Nsg17
Nsg18
g19
((lp303
S'n'
atRp304
sg22
I638
sbsg17
g1
(g7
g3
NtRp305
(dp306
g10
Nsg17
Nsg18
g19
((lp307
S'i'
atRp308
sg22
I613
sbsg18
g19
((lp309
S'i'
aS'n'
atRp310
sg22
I1251
sbsg18
g19
((lp311
S'p'
aS's'
aS'd'
aS'w'
aS'i'
aS'n'
atRp312
sg22
I2634
sbsg17
g1
(g7
g3
NtRp313
(dp314
g10
g1
(g7
g3
NtRp315
(dp316
g10
Nsg17
Nsg18
g19
((lp317
S'e'
atRp318
sg22
I1204
sbsg17
g1
(g7
g3
NtRp319
(dp320
g10
g1
(g7
g3
NtRp321
(dp322
g10
g1
(g7
g3
NtRp323
(dp324
g10
g1
(g7
g3
NtRp325
(dp326
g10
Nsg17
Nsg18
g19
((lp327
S','
atRp328
sg22
I169
sbsg17
g1
(g7
g3
NtRp329
(dp330
g10
g1
(g7
g3
NtRp331
(dp332
g10
Nsg17
Nsg18
g19
((lp333
S'.'
atRp334
sg22
I82
sbsg17
g1
(g7
g3
NtRp335
(dp336
g10
g1
(g7
g3
NtRp337
(dp338
g10
g1
(g7
g3
NtRp339
(dp340
g10
g1
(g7
g3
NtRp341
(dp342
g10
Nsg17
Nsg18
g19
((lp343
S'x'
atRp344
sg22
I11
sbsg17
g1
(g7
g3
NtRp345
(dp346
g10
g1
(g7
g3
NtRp347
(dp348
g10
Nsg17
Nsg18
g19
((lp349
S'Y'
atRp350
sg22
I5
sbsg17
g1
(g7
g3
NtRp351
(dp352
g10
g1
(g7
g3
NtRp353
(dp354
g10
Nsg17
Nsg18
g19
((lp355
S'M'
atRp356
sg22
I3
sbsg17
g1
(g7
g3
NtRp357
(dp358
g10
Nsg17
Nsg18
g19
((lp359
S'J'
atRp360
sg22
I2
sbsg18
g19
((lp361
S'J'
aS'M'
atRp362
sg22
I5
sbsg18
g19
((lp363
S'Y'
aS'J'
aS'M'
atRp364
sg22
I10
sbsg18
g19
((lp365
S'Y'
aS'x'
aS'J'
aS'M'
atRp366
sg22
I21
sbsg17
g1
(g7
g3
NtRp367
(dp368
g10
Nsg17
Nsg18
g19
((lp369
S'-'
atRp370
sg22
I20
sbsg18
g19
((lp371
S'Y'
aS'x'
aS'J'
aS'M'
aS'-'
atRp372
sg22
I41
sbsg17
g1
(g7
g3
NtRp373
(dp374
g10
Nsg17
Nsg18
g19
((lp375
S'\x80'
atRp376
sg22
I38
sbsg18
g19
((lp377
S'\x80'
aS'x'
aS'Y'
aS'M'
aS'J'
aS'-'
atRp378
sg22
I79
sbsg18
g19
((lp379
S'\x80'
aS'M'
aS'Y'
aS'x'
aS'J'
aS'-'
aS'.'
atRp380
sg22
I161
sbsg18
g19
((lp381
S'\x80'
aS'M'
aS'J'
aS'-'
aS','
aS'.'
aS'Y'
aS'x'
atRp382
sg22
I330
sbsg17
g1
(g7
g3
NtRp383
(dp384
g10
g1
(g7
g3
NtRp385
(dp386
g10
g1
(g7
g3
NtRp387
(dp388
g10
g1
(g7
g3
NtRp389
(dp390
g10
Nsg17
Nsg18
g19
((lp391
S'\xe2'
atRp392
sg22
I38
sbsg17
g1
(g7
g3
NtRp393
(dp394
g10
g1
(g7
g3
NtRp395
(dp396
g10
Nsg17
Nsg18
g19
((lp397
S'W'
atRp398
sg22
I19
sbsg17
g1
(g7
g3
NtRp399
(dp400
g10
Nsg17
Nsg18
g19
((lp401
S'A'
atRp402
sg22
I19
sbsg18
g19
((lp403
S'A'
aS'W'
atRp404
sg22
I38
sbsg18
g19
((lp405
S'A'
aS'\xe2'
aS'W'
atRp406
sg22
I76
sbsg17
g1
(g7
g3
NtRp407
(dp408
g10
g1
(g7
g3
NtRp409
(dp410
g10
g1
(g7
g3
NtRp411
(dp412
g10
g1
(g7
g3
NtRp413
(dp414
g10
g1
(g7
g3
NtRp415
(dp416
g10
Nsg17
Nsg18
g19
((lp417
S'R'
atRp418
sg22
I5
sbsg17
g1
(g7
g3
NtRp419
(dp420
g10
Nsg17
Nsg18
g19
((lp421
S'!'
atRp422
sg22
I5
sbsg18
g19
((lp423
S'!'
aS'R'
atRp424
sg22
I10
sbsg17
g1
(g7
g3
NtRp425
(dp426
g10
Nsg17
Nsg18
g19
((lp427
S'H'
atRp428
sg22
I9
sbsg18
g19
((lp429
S'!'
aS'H'
aS'R'
atRp430
sg22
I19
sbsg17
g1
(g7
g3
NtRp431
(dp432
g10
Nsg17
Nsg18
g19
((lp433
S'?'
atRp434
sg22
I18
sbsg18
g19
((lp435
S'!'
aS'H'
aS'R'
aS'?'
atRp436
sg22
I37
sbsg17
g1
(g7
g3
NtRp437
(dp438
g10
g1
(g7
g3
NtRp439
(dp440
g10
g1
(g7
g3
NtRp441
(dp442
g10
Nsg17
Nsg18
g19
((lp443
S'q'
atRp444
sg22
I9
sbsg17
g1
(g7
g3
NtRp445
(dp446
g10
Nsg17
Nsg18
g19
((lp447
S'j'
atRp448
sg22
I9
sbsg18
g19
((lp449
S'q'
aS'j'
atRp450
sg22
I18
sbsg17
g1
(g7
g3
NtRp451
(dp452
g10
g1
(g7
g3
NtRp453
(dp454
g10
Nsg17
Nsg18
g19
((lp455
S'P'
atRp456
sg22
I8
sbsg17
g1
(g7
g3
NtRp457
(dp458
g10
g1
(g7
g3
NtRp459
(dp460
g10
g1
(g7
g3
NtRp461
(dp462
g10
g1
(g7
g3
NtRp463
(dp464
g10
Nsg17
Nsg18
g19
((lp465
S'1'
atRp466
sg22
I1
sbsg17
g1
(g7
g3
NtRp467
(dp468
g10
Nsg17
Nsg18
g19
((lp469
S'('
atRp470
sg22
I1
sbsg18
g19
((lp471
S'1'
aS'('
atRp472
sg22
I2
sbsg17
g1
(g7
g3
NtRp473
(dp474
g10
g1
(g7
g3
NtRp475
(dp476
g10
Nsg17
Nsg18
g19
((lp477
S'\x9d'
atRp478
sg22
I1
sbsg17
g1
(g7
g3
NtRp479
(dp480
g10
Nsg17
Nsg18
g19
((lp481
S')'
atRp482
sg22
I1
sbsg18
g19
((lp483
S')'
aS'\x9d'
atRp484
sg22
I2
sbsg18
g19
((lp485
S')'
aS'1'
aS'\x9d'
aS'('
atRp486
sg22
I4
sbsg17
g1
(g7
g3
NtRp487
(dp488
g10
g1
(g7
g3
NtRp489
(dp490
g10
Nsg17
Nsg18
g19
((lp491
S'V'
atRp492
sg22
I2
sbsg17
g1
(g7
g3
NtRp493
(dp494
g10
g1
(g7
g3
NtRp495
(dp496
g10
Nsg17
Nsg18
g19
((lp497
S'U'
atRp498
sg22
I1
sbsg17
g1
(g7
g3
NtRp499
(dp500
g10
Nsg17
Nsg18
g19
((lp501
S':'
atRp502
sg22
I1
sbsg18
g19
((lp503
S':'
aS'U'
atRp504
sg22
I2
sbsg18
g19
((lp505
S':'
aS'U'
aS'V'
atRp506
sg22
I4
sbsg18
g19
((lp507
S'1'
aS'U'
aS'V'
aS')'
aS'('
aS':'
aS'\x9d'
atRp508
sg22
I8
sbsg18
g19
((lp509
S')'
aS'('
aS'1'
aS'P'
aS'U'
aS'V'
aS':'
aS'\x9d'
atRp510
sg22
I16
sbsg18
g19
((lp511
S'1'
aS')'
aS'('
aS'j'
aS'q'
aS'P'
aS'U'
aS'V'
aS':'
aS'\x9d'
atRp512
sg22
I34
sbsg18
g19
((lp513
S'!'
aS'1'
aS'V'
aS')'
aS'('
aS'j'
aS'q'
aS'P'
aS'R'
aS'U'
aS'H'
aS':'
aS'\x9d'
aS'?'
atRp514
sg22
I71
sbsg18
g19
((lp515
S'A'
aS'H'
aS'P'
aS'R'
aS'U'
aS'W'
aS'V'
aS'\x9d'
aS'!'
aS'1'
aS'\xe2'
aS')'
aS'('
aS'j'
aS'q'
aS':'
aS'?'
atRp516
sg22
I147
sbsg17
g1
(g7
g3
NtRp517
(dp518
g10
Nsg17
Nsg18
g19
((lp519
S'b'
atRp520
sg22
I124
sbsg18
g19
((lp521
S'A'
aS'H'
aS'P'
aS'R'
aS'U'
aS'W'
aS'V'
aS'\x9d'
aS'!'
aS'1'
aS'b'
aS')'
aS'('
aS'j'
aS'q'
aS':'
aS'?'
aS'\xe2'
atRp522
sg22
I271
sbsg18
g19
((lp523
S'A'
aS'\x80'
aS'H'
aS'J'
aS'M'
aS'P'
aS'R'
aS'U'
aS'W'
aS'V'
aS'Y'
aS'\x9d'
aS'!'
aS'1'
aS'b'
aS')'
aS'('
aS'j'
aS'-'
aS','
aS'.'
aS'q'
aS'x'
aS':'
aS'?'
aS'\xe2'
atRp524
sg22
I601
sbsg17
g1
(g7
g3
NtRp525
(dp526
g10
Nsg17
Nsg18
g19
((lp527
S'h'
atRp528
sg22
I548
sbsg18
g19
((lp529
S'A'
aS'\x80'
aS'H'
aS'J'
aS'M'
aS'P'
aS'R'
aS'U'
aS'W'
aS'V'
aS'Y'
aS'\x9d'
aS'!'
aS'q'
aS'\xe2'
aS')'
aS'('
aS'b'
aS'j'
aS'-'
aS','
aS'.'
aS'1'
aS'h'
aS'x'
aS':'
aS'?'
atRp530
sg22
I1149
sbsg18
g19
((lp531
S'A'
aS'\x80'
aS'H'
aS'J'
aS'M'
aS'P'
aS'R'
aS'U'
aS'W'
aS'V'
aS'Y'
aS'\x9d'
aS'!'
aS'q'
aS'\xe2'
aS'e'
aS')'
aS'('
aS'b'
aS'j'
aS'-'
aS','
aS'.'
aS'1'
aS'h'
aS'x'
aS':'
aS'?'
atRp532
sg22
I2353
sbsg18
g19
((lp533
S'\x80'
aS'\x9d'
aS'!'
aS')'
aS'('
aS'-'
aS','
aS'.'
aS'1'
aS':'
aS'?'
aS'A'
aS'H'
aS'J'
aS'M'
aS'P'
aS'R'
aS'U'
aS'W'
aS'V'
aS'Y'
aS'b'
aS'\xe2'
aS'e'
aS'd'
aS'i'
aS'h'
aS'j'
aS'n'
aS'q'
aS'p'
aS's'
aS'w'
aS'x'
atRp534
sg22
I4987
sbsg18
g19
((lp535
S'\n'
aS'\x99'
aS'\x9d'
aS' '
aS'('
aS','
aS'.'
aS':'
aS'B'
aS'D'
aS'F'
aS'H'
aS'J'
aS'L'
aS'N'
aS'P'
aS'R'
aS'T'
aS'V'
aS'b'
aS'd'
aS'f'
aS'h'
aS'j'
aS'l'
aS'n'
aS'p'
aS'r'
aS't'
aS'v'
aS'x'
aS'z'
aS'\x80'
aS'\x94'
aS'\x9c'
aS'!'
aS')'
aS'-'
aS'1'
aS';'
aS'?'
aS'A'
aS'C'
aS'E'
aS'G'
aS'I'
aS'M'
aS'O'
aS'S'
aS'U'
aS'W'
aS'Y'
aS'a'
aS'c'
aS'\xe2'
aS'e'
aS'g'
aS'i'
aS'k'
aS'm'
aS'o'
aS'q'
aS's'
aS'u'
aS'w'
aS'y'
atRp536
sg22
I12285
sbsb.